target datalayout = "e-m:e-p270:32:32-p271:32:32-p272:64:64-i64:64-i128:128-f80:128-n8:16:32:64-S128"
target triple = "x86_64-pc-linux-gnu"

%struct.expert_field = type { i32, i32 }

@ei_gsm_a_gm_extraneous_data = internal global %struct.expert_field zeroinitializer, align 4
@hf_gsm_a_sm_ext = internal global i32 0, align 4
@hf_gsm_a_sm_ti_flag = internal global i32 0, align 4
@hf_gsm_a_gm_ti_value = internal global i32 0, align 4

; Function Attrs: null_pointer_is_valid sspstrong uwtable
define internal zeroext i16 @de_sm_linked_ti(ptr noundef %0, ptr noundef %1, ptr noundef %2, i32 noundef %3, i32 noundef %4, ptr noundef %5, i32 noundef %6) #1 {
  %8 = alloca ptr, align 8
  %9 = alloca ptr, align 8
  %10 = alloca ptr, align 8
  %11 = alloca i32, align 4
  %12 = alloca i32, align 4
  %13 = alloca ptr, align 8
  %14 = alloca i32, align 4
  %15 = alloca i32, align 4
  %16 = alloca i32, align 4
  %17 = alloca i8, align 1
  store ptr %0, ptr %8, align 8
  store ptr %1, ptr %9, align 8
  store ptr %2, ptr %10, align 8
  store i32 %3, ptr %11, align 4
  store i32 %4, ptr %12, align 4
  store ptr %5, ptr %13, align 8
  store i32 %6, ptr %14, align 4
  call void @llvm.lifetime.start.p0(i64 4, ptr %15) #6
  call void @llvm.lifetime.start.p0(i64 4, ptr %16) #6
  call void @llvm.lifetime.start.p0(i64 1, ptr %17) #6
  %18 = load i32, ptr %12, align 4
  store i32 %18, ptr %16, align 4
  %19 = load i32, ptr %11, align 4
  store i32 %19, ptr %15, align 4
  %20 = load ptr, ptr %8, align 8
  %21 = load i32, ptr %15, align 4
  %22 = call zeroext i8 @tvb_get_uint8(ptr noundef %20, i32 noundef %21)
  store i8 %22, ptr %17, align 1
  %23 = load ptr, ptr %9, align 8
  %24 = load i32, ptr @hf_gsm_a_sm_ti_flag, align 4
  %25 = load ptr, ptr %8, align 8
  %26 = load i32, ptr %11, align 4
  %27 = call ptr @proto_tree_add_item(ptr noundef %23, i32 noundef %24, ptr noundef %25, i32 noundef %26, i32 noundef 1, i32 noundef 0)
  %28 = load i32, ptr %16, align 4
  %29 = icmp ugt i32 %28, 1
  br i1 %29, label %30, label %51

30:                                               ; preds = %7
  %31 = load i32, ptr %15, align 4
  %32 = add i32 %31, 1
  store i32 %32, ptr %15, align 4
  %33 = load ptr, ptr %8, align 8
  %34 = load i32, ptr %15, align 4
  %35 = call zeroext i8 @tvb_get_uint8(ptr noundef %33, i32 noundef %34)
  store i8 %35, ptr %17, align 1
  %36 = load ptr, ptr %9, align 8
  %37 = load i32, ptr @hf_gsm_a_gm_ti_value, align 4
  %38 = load ptr, ptr %8, align 8
  %39 = load i32, ptr %15, align 4
  %40 = load i8, ptr %17, align 1
  %41 = sext i8 %40 to i32
  %42 = and i32 %41, 127
  %43 = call ptr @proto_tree_add_uint(ptr noundef %36, i32 noundef %37, ptr noundef %38, i32 noundef %39, i32 noundef 1, i32 noundef %42)
  %44 = load ptr, ptr %9, align 8
  %45 = load i32, ptr @hf_gsm_a_sm_ext, align 4
  %46 = load ptr, ptr %8, align 8
  %47 = load i32, ptr %15, align 4
  %48 = call ptr @proto_tree_add_item(ptr noundef %44, i32 noundef %45, ptr noundef %46, i32 noundef %47, i32 noundef 1, i32 noundef 0)
  %49 = load i32, ptr %15, align 4
  %50 = add i32 %49, 1
  store i32 %50, ptr %15, align 4
  br label %63

51:                                               ; preds = %7
  %52 = load ptr, ptr %9, align 8
  %53 = load i32, ptr @hf_gsm_a_gm_ti_value, align 4
  %54 = load ptr, ptr %8, align 8
  %55 = load i32, ptr %15, align 4
  %56 = load i8, ptr %17, align 1
  %57 = sext i8 %56 to i32
  %58 = ashr i32 %57, 4
  %59 = and i32 %58, 7
  %60 = call ptr @proto_tree_add_uint(ptr noundef %52, i32 noundef %53, ptr noundef %54, i32 noundef %55, i32 noundef 1, i32 noundef %59)
  %61 = load i32, ptr %15, align 4
  %62 = add i32 %61, 1
  store i32 %62, ptr %15, align 4
  br label %63

63:                                               ; preds = %51, %30
  %64 = load i32, ptr %12, align 4
  %65 = load i32, ptr %15, align 4
  %66 = load i32, ptr %11, align 4
  %67 = sub i32 %65, %66
  %68 = icmp ugt i32 %64, %67
  br i1 %68, label %69, label %87

69:                                               ; preds = %63
  %70 = load ptr, ptr %9, align 8
  %71 = load ptr, ptr %10, align 8
  %72 = load ptr, ptr %8, align 8
  %73 = load i32, ptr %15, align 4
  %74 = load i32, ptr %12, align 4
  %75 = load i32, ptr %15, align 4
  %76 = load i32, ptr %11, align 4
  %77 = sub i32 %75, %76
  %78 = sub i32 %74, %77
  %79 = call ptr @proto_tree_add_expert(ptr noundef %70, ptr noundef %71, ptr noundef @ei_gsm_a_gm_extraneous_data, ptr noundef %72, i32 noundef %73, i32 noundef %78)
  %80 = load i32, ptr %12, align 4
  %81 = load i32, ptr %15, align 4
  %82 = load i32, ptr %11, align 4
  %83 = sub i32 %81, %82
  %84 = sub i32 %80, %83
  %85 = load i32, ptr %15, align 4
  %86 = add i32 %85, %84
  store i32 %86, ptr %15, align 4
  br label %87

87:                                               ; preds = %69, %63
  %88 = load i32, ptr %15, align 4
  %89 = load i32, ptr %11, align 4
  %90 = sub i32 %88, %89
  %91 = trunc i32 %90 to i16
  call void @llvm.lifetime.end.p0(i64 1, ptr %17) #6
  call void @llvm.lifetime.end.p0(i64 4, ptr %16) #6
  call void @llvm.lifetime.end.p0(i64 4, ptr %15) #6
  ret i16 %91
}