; Function Attrs: null_pointer_is_valid sspstrong uwtable
define internal noundef zeroext i16 @de_sm_linked_ti(ptr noundef %0, ptr noundef %1, ptr noundef %2, i32 noundef %3, i32 noundef %4, ptr readnone captures(none) %5, i32 %6) #1 {
  %8 = tail call zeroext i8 @tvb_get_uint8(ptr noundef %0, i32 noundef %3)
  %9 = load i32, ptr @hf_gsm_a_sm_ti_flag, align 4
  %10 = tail call ptr @proto_tree_add_item(ptr noundef %1, i32 noundef %9, ptr noundef %0, i32 noundef %3, i32 noundef 1, i32 noundef 0)
  %11 = icmp ugt i32 %4, 1
  br i1 %11, label %12, label %21

12:                                               ; preds = %7
  %13 = add i32 %3, 1
  %14 = tail call zeroext i8 @tvb_get_uint8(ptr noundef %0, i32 noundef %13)
  %15 = load i32, ptr @hf_gsm_a_gm_ti_value, align 4
  %16 = and i8 %14, 127
  %17 = zext nneg i8 %16 to i32
  %18 = tail call ptr @proto_tree_add_uint(ptr noundef %1, i32 noundef %15, ptr noundef %0, i32 noundef %13, i32 noundef 1, i32 noundef %17)
  %19 = load i32, ptr @hf_gsm_a_sm_ext, align 4
  %20 = tail call ptr @proto_tree_add_item(ptr noundef %1, i32 noundef %19, ptr noundef %0, i32 noundef %13, i32 noundef 1, i32 noundef 0)
  br label %27

21:                                               ; preds = %7
  %22 = load i32, ptr @hf_gsm_a_gm_ti_value, align 4
  %23 = lshr i8 %8, 4
  %24 = and i8 %23, 7
  %25 = zext nneg i8 %24 to i32
  %26 = tail call ptr @proto_tree_add_uint(ptr noundef %1, i32 noundef %22, ptr noundef %0, i32 noundef %3, i32 noundef 1, i32 noundef %25)
  br label %27

27:                                               ; preds = %21, %12
  %.sink = phi i32 [ 1, %21 ], [ 2, %12 ]
  %28 = icmp ugt i32 %4, %.sink
  br i1 %28, label %29, label %33

29:                                               ; preds = %27
  %30 = add i32 %3, %.sink
  %31 = sub nuw i32 %4, %.sink
  %32 = tail call ptr @proto_tree_add_expert(ptr noundef %1, ptr noundef %2, ptr noundef nonnull @ei_gsm_a_gm_extraneous_data, ptr noundef %0, i32 noundef %30, i32 noundef %31)
  br label %33

33:                                               ; preds = %29, %27
  %.pre-phi = phi i32 [ %4, %29 ], [ %.sink, %27 ]
  %34 = trunc i32 %.pre-phi to i16
  ret i16 %34
}